target datalayout = "e-m:e-p270:32:32-p271:32:32-p272:64:64-i64:64-i128:128-f80:128-n8:16:32:64-S128"
target triple = "x86_64-pc-linux-gnu"

%"class.pybind11::handle" = type { ptr }
%class.anon.5 = type { i8 }
%"class.std::__exception_ptr::exception_ptr" = type { ptr }

@PyExc_RuntimeError = external global ptr, align 8
@_ZTI12MyException2 = linkonce_odr hidden constant { ptr, ptr, ptr } { ptr getelementptr inbounds (ptr, ptr @_ZTVN10__cxxabiv120__si_class_type_infoE, i64 2), ptr @_ZTS12MyException2, ptr @_ZTISt9exception }, comdat, align 8

; Function Attrs: mustprogress nounwind uwtable
define linkonce_odr hidden noundef ptr @_ZNK8pybind116handle3ptrEv(ptr noundef nonnull align 8 dereferenceable(8) %0) #0 comdat align 2 {
  %2 = alloca ptr, align 8
  store ptr %0, ptr %2, align 8
  %3 = load ptr, ptr %2, align 8
  %4 = getelementptr inbounds %"class.pybind11::handle", ptr %3, i32 0, i32 0
  %5 = load ptr, ptr %4, align 8
  ret ptr %5
}

; Function Attrs: mustprogress uwtable
define linkonce_odr hidden void @_ZN8pybind119set_errorERKNS_6handleEPKc(ptr noundef nonnull align 8 dereferenceable(8) %0, ptr noundef %1) #1 comdat {
  %3 = alloca ptr, align 8
  %4 = alloca ptr, align 8
  store ptr %0, ptr %3, align 8
  store ptr %1, ptr %4, align 8
  %5 = load ptr, ptr %3, align 8
  %6 = call noundef ptr @_ZNK8pybind116handle3ptrEv(ptr noundef nonnull align 8 dereferenceable(8) %5)
  %7 = load ptr, ptr %4, align 8
  call void @PyErr_SetString(ptr noundef %6, ptr noundef %7)
  ret void
}

; Function Attrs: mustprogress nounwind uwtable
define linkonce_odr hidden void @_ZN8pybind116handleC2IP7_objectTnNSt9enable_ifIXsr6detail25is_pyobj_ptr_or_nullptr_tIT_EE5valueEiE4typeELi0EEES5_(ptr noundef nonnull align 8 dereferenceable(8) %0, ptr noundef %1) unnamed_addr #0 comdat align 2 {
  %3 = alloca ptr, align 8
  %4 = alloca ptr, align 8
  store ptr %0, ptr %3, align 8
  store ptr %1, ptr %4, align 8
  %5 = load ptr, ptr %3, align 8
  %6 = getelementptr inbounds %"class.pybind11::handle", ptr %5, i32 0, i32 0
  %7 = load ptr, ptr %4, align 8
  store ptr %7, ptr %6, align 8
  ret void
}

; Function Attrs: mustprogress nounwind uwtable
define linkonce_odr void @_ZNSt15__exception_ptr13exception_ptrD2Ev(ptr noundef nonnull align 8 dereferenceable(8) %0) unnamed_addr #0 comdat align 2 {
  %2 = alloca ptr, align 8
  store ptr %0, ptr %2, align 8
  %3 = load ptr, ptr %2, align 8
  %4 = getelementptr inbounds %"class.std::__exception_ptr::exception_ptr", ptr %3, i32 0, i32 0
  %5 = load ptr, ptr %4, align 8
  %6 = icmp ne ptr %5, null
  br i1 %6, label %7, label %8

7:                                                ; preds = %1
  call void @_ZNSt15__exception_ptr13exception_ptr10_M_releaseEv(ptr noundef nonnull align 8 dereferenceable(8) %3) #6
  br label %8

8:                                                ; preds = %7, %1
  ret void
}

; Function Attrs: mustprogress nounwind uwtable
define linkonce_odr void @_ZNSt15__exception_ptr13exception_ptrC2ERKS0_(ptr noundef nonnull align 8 dereferenceable(8) %0, ptr noundef nonnull align 8 dereferenceable(8) %1) unnamed_addr #0 comdat align 2 {
  %3 = alloca ptr, align 8
  %4 = alloca ptr, align 8
  store ptr %0, ptr %3, align 8
  store ptr %1, ptr %4, align 8
  %5 = load ptr, ptr %3, align 8
  %6 = getelementptr inbounds %"class.std::__exception_ptr::exception_ptr", ptr %5, i32 0, i32 0
  %7 = load ptr, ptr %4, align 8
  %8 = getelementptr inbounds %"class.std::__exception_ptr::exception_ptr", ptr %7, i32 0, i32 0
  %9 = load ptr, ptr %8, align 8
  store ptr %9, ptr %6, align 8
  %10 = getelementptr inbounds %"class.std::__exception_ptr::exception_ptr", ptr %5, i32 0, i32 0
  %11 = load ptr, ptr %10, align 8
  %12 = icmp ne ptr %11, null
  br i1 %12, label %13, label %14

13:                                               ; preds = %2
  call void @_ZNSt15__exception_ptr13exception_ptr9_M_addrefEv(ptr noundef nonnull align 8 dereferenceable(8) %5) #6
  br label %14

14:                                               ; preds = %13, %2
  ret void
}

; Function Attrs: mustprogress nounwind uwtable
define linkonce_odr noundef zeroext i1 @_ZNKSt15__exception_ptr13exception_ptrcvbEv(ptr noundef nonnull align 8 dereferenceable(8) %0) #0 comdat align 2 {
  %2 = alloca ptr, align 8
  store ptr %0, ptr %2, align 8
  %3 = load ptr, ptr %2, align 8
  %4 = getelementptr inbounds %"class.std::__exception_ptr::exception_ptr", ptr %3, i32 0, i32 0
  %5 = load ptr, ptr %4, align 8
  %6 = icmp ne ptr %5, null
  ret i1 %6
}

; Function Attrs: mustprogress uwtable
define internal void @"_ZZ25test_submodule_exceptionsRN8pybind117module_EENK3$_4clENSt15__exception_ptr13exception_ptrE"(ptr noundef nonnull align 1 dereferenceable(1) %0, ptr noundef %1) #1 align 2 personality ptr @__gxx_personality_v0 {
  %3 = alloca ptr, align 8
  %4 = alloca ptr, align 8
  %5 = alloca %"class.std::__exception_ptr::exception_ptr", align 8
  %6 = alloca ptr, align 8
  %7 = alloca i32, align 4
  %8 = alloca ptr, align 8
  %9 = alloca %"class.pybind11::handle", align 8
  store ptr %0, ptr %3, align 8
  store ptr %1, ptr %4, align 8
  %10 = call noundef zeroext i1 @_ZNKSt15__exception_ptr13exception_ptrcvbEv(ptr noundef nonnull align 8 dereferenceable(8) %1) #6
  br i1 %10, label %11, label %33

11:                                               ; preds = %2
  call void @_ZNSt15__exception_ptr13exception_ptrC2ERKS0_(ptr noundef nonnull align 8 dereferenceable(8) %5, ptr noundef nonnull align 8 dereferenceable(8) %1) #6
  invoke void @_ZSt17rethrow_exceptionNSt15__exception_ptr13exception_ptrE(ptr noundef %5) #23
          to label %12 unwind label %13

12:                                               ; preds = %11
  unreachable

13:                                               ; preds = %11
  %14 = landingpad { ptr, i32 }
          cleanup
          catch ptr @_ZTI12MyException2
  %15 = extractvalue { ptr, i32 } %14, 0
  store ptr %15, ptr %6, align 8
  %16 = extractvalue { ptr, i32 } %14, 1
  store i32 %16, ptr %7, align 4
  call void @_ZNSt15__exception_ptr13exception_ptrD2Ev(ptr noundef nonnull align 8 dereferenceable(8) %5) #6
  br label %17

17:                                               ; preds = %13
  %18 = load i32, ptr %7, align 4
  %19 = call i32 @llvm.eh.typeid.for(ptr @_ZTI12MyException2) #6
  %20 = icmp eq i32 %18, %19
  br i1 %20, label %21, label %39

21:                                               ; preds = %17
  %22 = load ptr, ptr %6, align 8
  %23 = call ptr @__cxa_begin_catch(ptr %22) #6
  store ptr %23, ptr %8, align 8
  %24 = load ptr, ptr @PyExc_RuntimeError, align 8
  invoke void @_ZN8pybind116handleC2IP7_objectTnNSt9enable_ifIXsr6detail25is_pyobj_ptr_or_nullptr_tIT_EE5valueEiE4typeELi0EEES5_(ptr noundef nonnull align 8 dereferenceable(8) %9, ptr noundef %24)
          to label %25 unwind label %34

25:                                               ; preds = %21
  %26 = load ptr, ptr %8, align 8
  %27 = load ptr, ptr %26, align 8
  %28 = getelementptr inbounds ptr, ptr %27, i64 2
  %29 = load ptr, ptr %28, align 8
  %30 = call noundef ptr %29(ptr noundef nonnull align 8 dereferenceable(40) %26) #6
  invoke void @_ZN8pybind119set_errorERKNS_6handleEPKc(ptr noundef nonnull align 8 dereferenceable(8) %9, ptr noundef %30)
          to label %31 unwind label %34

31:                                               ; preds = %25
  call void @__cxa_end_catch()
  br label %32

32:                                               ; preds = %33, %31
  ret void

33:                                               ; preds = %2
  br label %32

34:                                               ; preds = %25, %21
  %35 = landingpad { ptr, i32 }
          cleanup
  %36 = extractvalue { ptr, i32 } %35, 0
  store ptr %36, ptr %6, align 8
  %37 = extractvalue { ptr, i32 } %35, 1
  store i32 %37, ptr %7, align 4
  invoke void @__cxa_end_catch()
          to label %38 unwind label %44

38:                                               ; preds = %34
  br label %39

39:                                               ; preds = %38, %17
  %40 = load ptr, ptr %6, align 8
  %41 = load i32, ptr %7, align 4
  %42 = insertvalue { ptr, i32 } poison, ptr %40, 0
  %43 = insertvalue { ptr, i32 } %42, i32 %41, 1
  resume { ptr, i32 } %43

44:                                               ; preds = %34
  %45 = landingpad { ptr, i32 }
          catch ptr null
  %46 = extractvalue { ptr, i32 } %45, 0
  call void @__clang_call_terminate(ptr %46) #20
  unreachable
}

; Function Attrs: mustprogress uwtable
define internal void @"_ZZ25test_submodule_exceptionsRN8pybind117module_EEN3$_48__invokeENSt15__exception_ptr13exception_ptrE"(ptr noundef %0) #1 align 2 {
  %2 = alloca ptr, align 8
  %3 = alloca %class.anon.5, align 1
  store ptr %0, ptr %2, align 8
  call void @"_ZZ25test_submodule_exceptionsRN8pybind117module_EENK3$_4clENSt15__exception_ptr13exception_ptrE"(ptr noundef nonnull align 1 dereferenceable(1) %3, ptr noundef %0)
  ret void
}